target datalayout = "e-m:e-p270:32:32-p271:32:32-p272:64:64-i64:64-i128:128-f80:128-n8:16:32:64-S128"
target triple = "x86_64-pc-linux-gnu"

%struct.Agobj_s = type { %struct.Agtag_s, ptr }
%struct.Agtag_s = type { i32, i64 }
%struct.Agraphinfo_t = type { %struct.Agrec_s, ptr, ptr, %struct.boxf, [4 x %struct.pointf_s], i8, i8, i8, i8, i32, double, double, i16, ptr, ptr, ptr, ptr, i32, ptr, ptr, ptr, ptr, i16, i16, i32, ptr, ptr, ptr, ptr, ptr, i32, ptr, ptr, %struct.nlist_t, ptr, ptr, i32, i32, i8, i8, i32, i32, i32, ptr, ptr, ptr, ptr, i8, i8, i8, i8, i8 }
%struct.Agrec_s = type { ptr, ptr }
%struct.boxf = type { %struct.pointf_s, %struct.pointf_s }
%struct.pointf_s = type { double, double }
%struct.nlist_t = type { ptr, i64 }
%struct.rank_t = type { i32, ptr, i32, ptr, double, double, double, double, i8, i8, i64, ptr }
%struct.Agnodeinfo_t = type { %struct.Agrec_s, ptr, ptr, %struct.pointf_s, double, double, %struct.boxf, double, double, double, double, double, ptr, ptr, ptr, i8, i8, i8, i8, i32, i32, i32, ptr, double, i8, i8, ptr, ptr, i8, i64, i8, i8, i8, ptr, ptr, %struct.elist, %struct.elist, %struct.elist, %struct.elist, %struct.elist, ptr, i32, ptr, i32, i32, double, %struct.elist, %struct.elist, %struct.elist, %struct.elist, ptr, i32, i32, i32, [1 x double] }
%struct.elist = type { ptr, i64 }
%struct.Agedge_s = type { %struct.Agobj_s, %struct.dtlink_s_, %struct.dtlink_s_, ptr }
%struct.dtlink_s_ = type { ptr, %union.anon.0 }
%union.anon.0 = type { ptr }
%struct.Agedgeinfo_t = type { %struct.Agrec_s, ptr, %struct.port, %struct.port, ptr, ptr, ptr, ptr, i8, i8, i8, i8, i8, ptr, ptr, double, double, %struct.Ppoly_t, i8, i8, i16, i32, i32, i32, i16, i32, ptr }
%struct.port = type { %struct.pointf_s, double, ptr, i8, i8, i8, i8, i8, i8, ptr }
%struct.Ppoly_t = type { ptr, i64 }
%struct.adjmatrix_t = type { i64, i64, ptr }

; Function Attrs: nounwind uwtable
define internal void @flat_search(ptr noundef %0, ptr noundef %1) #0 {
  %3 = alloca ptr, align 8
  %4 = alloca ptr, align 8
  %5 = alloca i32, align 4
  %6 = alloca i8, align 1
  %7 = alloca ptr, align 8
  %8 = alloca ptr, align 8
  store ptr %0, ptr %3, align 8, !tbaa !3
  store ptr %1, ptr %4, align 8, !tbaa !41
  call void @llvm.lifetime.start.p0(i64 4, ptr %5) #15
  call void @llvm.lifetime.start.p0(i64 1, ptr %6) #15
  call void @llvm.lifetime.start.p0(i64 8, ptr %7) #15
  call void @llvm.lifetime.start.p0(i64 8, ptr %8) #15
  %9 = load ptr, ptr %3, align 8, !tbaa !3
  %10 = getelementptr inbounds nuw %struct.Agobj_s, ptr %9, i32 0, i32 1
  %11 = load ptr, ptr %10, align 8, !tbaa !8
  %12 = getelementptr inbounds nuw %struct.Agraphinfo_t, ptr %11, i32 0, i32 28
  %13 = load ptr, ptr %12, align 8, !tbaa !35
  %14 = load ptr, ptr %4, align 8, !tbaa !41
  %15 = getelementptr inbounds nuw %struct.Agobj_s, ptr %14, i32 0, i32 1
  %16 = load ptr, ptr %15, align 8, !tbaa !8
  %17 = getelementptr inbounds nuw %struct.Agnodeinfo_t, ptr %16, i32 0, i32 43
  %18 = load i32, ptr %17, align 8, !tbaa !119
  %19 = sext i32 %18 to i64
  %20 = getelementptr inbounds %struct.rank_t, ptr %13, i64 %19
  %21 = getelementptr inbounds nuw %struct.rank_t, ptr %20, i32 0, i32 11
  %22 = load ptr, ptr %21, align 8, !tbaa !111
  store ptr %22, ptr %8, align 8, !tbaa !196
  %23 = load ptr, ptr %4, align 8, !tbaa !41
  %24 = getelementptr inbounds nuw %struct.Agobj_s, ptr %23, i32 0, i32 1
  %25 = load ptr, ptr %24, align 8, !tbaa !8
  %26 = getelementptr inbounds nuw %struct.Agnodeinfo_t, ptr %25, i32 0, i32 29
  store i64 1, ptr %26, align 8, !tbaa !124
  %27 = load ptr, ptr %4, align 8, !tbaa !41
  %28 = getelementptr inbounds nuw %struct.Agobj_s, ptr %27, i32 0, i32 1
  %29 = load ptr, ptr %28, align 8, !tbaa !8
  %30 = getelementptr inbounds nuw %struct.Agnodeinfo_t, ptr %29, i32 0, i32 30
  store i8 1, ptr %30, align 8, !tbaa !171
  %31 = load ptr, ptr %3, align 8, !tbaa !3
  %32 = call ptr @dot_root(ptr noundef %31)
  %33 = getelementptr inbounds nuw %struct.Agobj_s, ptr %32, i32 0, i32 1
  %34 = load ptr, ptr %33, align 8, !tbaa !8
  %35 = getelementptr inbounds nuw %struct.Agraphinfo_t, ptr %34, i32 0, i32 24
  %36 = load i32, ptr %35, align 4, !tbaa !78
  %37 = icmp sgt i32 %36, 0
  %38 = zext i1 %37 to i8
  store i8 %38, ptr %6, align 1, !tbaa !65
  %39 = load ptr, ptr %4, align 8, !tbaa !41
  %40 = getelementptr inbounds nuw %struct.Agobj_s, ptr %39, i32 0, i32 1
  %41 = load ptr, ptr %40, align 8, !tbaa !8
  %42 = getelementptr inbounds nuw %struct.Agnodeinfo_t, ptr %41, i32 0, i32 37
  %43 = getelementptr inbounds nuw %struct.elist, ptr %42, i32 0, i32 0
  %44 = load ptr, ptr %43, align 8, !tbaa !101
  %45 = icmp ne ptr %44, null
  br i1 %45, label %46, label %278

46:                                               ; preds = %2
  store i32 0, ptr %5, align 4, !tbaa !33
  br label %47

47:                                               ; preds = %274, %46
  %48 = load ptr, ptr %4, align 8, !tbaa !41
  %49 = getelementptr inbounds nuw %struct.Agobj_s, ptr %48, i32 0, i32 1
  %50 = load ptr, ptr %49, align 8, !tbaa !8
  %51 = getelementptr inbounds nuw %struct.Agnodeinfo_t, ptr %50, i32 0, i32 37
  %52 = getelementptr inbounds nuw %struct.elist, ptr %51, i32 0, i32 0
  %53 = load ptr, ptr %52, align 8, !tbaa !101
  %54 = load i32, ptr %5, align 4, !tbaa !33
  %55 = sext i32 %54 to i64
  %56 = getelementptr inbounds ptr, ptr %53, i64 %55
  %57 = load ptr, ptr %56, align 8, !tbaa !49
  store ptr %57, ptr %7, align 8, !tbaa !49
  %58 = icmp ne ptr %57, null
  br i1 %58, label %59, label %277

59:                                               ; preds = %47
  %60 = load i8, ptr %6, align 1, !tbaa !65, !range !68, !noundef !69
  %61 = trunc i8 %60 to i1
  br i1 %61, label %62, label %99

62:                                               ; preds = %59
  %63 = load ptr, ptr %3, align 8, !tbaa !3
  %64 = load ptr, ptr %7, align 8, !tbaa !49
  %65 = getelementptr inbounds nuw %struct.Agobj_s, ptr %64, i32 0, i32 0
  %66 = load i32, ptr %65, align 8
  %67 = and i32 %66, 3
  %68 = icmp eq i32 %67, 3
  br i1 %68, label %69, label %71

69:                                               ; preds = %62
  %70 = load ptr, ptr %7, align 8, !tbaa !49
  br label %74

71:                                               ; preds = %62
  %72 = load ptr, ptr %7, align 8, !tbaa !49
  %73 = getelementptr inbounds %struct.Agedge_s, ptr %72, i64 1
  br label %74

74:                                               ; preds = %71, %69
  %75 = phi ptr [ %70, %69 ], [ %73, %71 ]
  %76 = getelementptr inbounds nuw %struct.Agedge_s, ptr %75, i32 0, i32 3
  %77 = load ptr, ptr %76, align 8, !tbaa !51
  %78 = call i32 @agcontains(ptr noundef %63, ptr noundef %77)
  %79 = icmp ne i32 %78, 0
  br i1 %79, label %80, label %98

80:                                               ; preds = %74
  %81 = load ptr, ptr %3, align 8, !tbaa !3
  %82 = load ptr, ptr %7, align 8, !tbaa !49
  %83 = getelementptr inbounds nuw %struct.Agobj_s, ptr %82, i32 0, i32 0
  %84 = load i32, ptr %83, align 8
  %85 = and i32 %84, 3
  %86 = icmp eq i32 %85, 2
  br i1 %86, label %87, label %89

87:                                               ; preds = %80
  %88 = load ptr, ptr %7, align 8, !tbaa !49
  br label %92

89:                                               ; preds = %80
  %90 = load ptr, ptr %7, align 8, !tbaa !49
  %91 = getelementptr inbounds %struct.Agedge_s, ptr %90, i64 -1
  br label %92

92:                                               ; preds = %89, %87
  %93 = phi ptr [ %88, %87 ], [ %91, %89 ]
  %94 = getelementptr inbounds nuw %struct.Agedge_s, ptr %93, i32 0, i32 3
  %95 = load ptr, ptr %94, align 8, !tbaa !51
  %96 = call i32 @agcontains(ptr noundef %81, ptr noundef %95)
  %97 = icmp ne i32 %96, 0
  br i1 %97, label %99, label %98

98:                                               ; preds = %92, %74
  br label %274

99:                                               ; preds = %92, %59
  %100 = load ptr, ptr %7, align 8, !tbaa !49
  %101 = getelementptr inbounds nuw %struct.Agobj_s, ptr %100, i32 0, i32 1
  %102 = load ptr, ptr %101, align 8, !tbaa !8
  %103 = getelementptr inbounds nuw %struct.Agedgeinfo_t, ptr %102, i32 0, i32 21
  %104 = load i32, ptr %103, align 4, !tbaa !153
  %105 = icmp eq i32 %104, 0
  br i1 %105, label %106, label %107

106:                                              ; preds = %99
  br label %274

107:                                              ; preds = %99
  %108 = load ptr, ptr %7, align 8, !tbaa !49
  %109 = getelementptr inbounds nuw %struct.Agobj_s, ptr %108, i32 0, i32 0
  %110 = load i32, ptr %109, align 8
  %111 = and i32 %110, 3
  %112 = icmp eq i32 %111, 2
  br i1 %112, label %113, label %115

113:                                              ; preds = %107
  %114 = load ptr, ptr %7, align 8, !tbaa !49
  br label %118

115:                                              ; preds = %107
  %116 = load ptr, ptr %7, align 8, !tbaa !49
  %117 = getelementptr inbounds %struct.Agedge_s, ptr %116, i64 -1
  br label %118

118:                                              ; preds = %115, %113
  %119 = phi ptr [ %114, %113 ], [ %117, %115 ]
  %120 = getelementptr inbounds nuw %struct.Agedge_s, ptr %119, i32 0, i32 3
  %121 = load ptr, ptr %120, align 8, !tbaa !51
  %122 = getelementptr inbounds nuw %struct.Agobj_s, ptr %121, i32 0, i32 1
  %123 = load ptr, ptr %122, align 8, !tbaa !8
  %124 = getelementptr inbounds nuw %struct.Agnodeinfo_t, ptr %123, i32 0, i32 30
  %125 = load i8, ptr %124, align 8, !tbaa !171
  %126 = icmp ne i8 %125, 0
  br i1 %126, label %127, label %189

127:                                              ; preds = %118
  %128 = load ptr, ptr %8, align 8, !tbaa !196
  %129 = getelementptr inbounds nuw %struct.adjmatrix_t, ptr %128, i32 0, i32 2
  %130 = load ptr, ptr %129, align 8, !tbaa !200
  %131 = load ptr, ptr %7, align 8, !tbaa !49
  %132 = getelementptr inbounds nuw %struct.Agobj_s, ptr %131, i32 0, i32 0
  %133 = load i32, ptr %132, align 8
  %134 = and i32 %133, 3
  %135 = icmp eq i32 %134, 2
  br i1 %135, label %136, label %138

136:                                              ; preds = %127
  %137 = load ptr, ptr %7, align 8, !tbaa !49
  br label %141

138:                                              ; preds = %127
  %139 = load ptr, ptr %7, align 8, !tbaa !49
  %140 = getelementptr inbounds %struct.Agedge_s, ptr %139, i64 -1
  br label %141

141:                                              ; preds = %138, %136
  %142 = phi ptr [ %137, %136 ], [ %140, %138 ]
  %143 = getelementptr inbounds nuw %struct.Agedge_s, ptr %142, i32 0, i32 3
  %144 = load ptr, ptr %143, align 8, !tbaa !51
  %145 = getelementptr inbounds nuw %struct.Agobj_s, ptr %144, i32 0, i32 1
  %146 = load ptr, ptr %145, align 8, !tbaa !8
  %147 = getelementptr inbounds nuw %struct.Agnodeinfo_t, ptr %146, i32 0, i32 51
  %148 = load i32, ptr %147, align 8, !tbaa !172
  %149 = sext i32 %148 to i64
  %150 = load ptr, ptr %8, align 8, !tbaa !196
  %151 = getelementptr inbounds nuw %struct.adjmatrix_t, ptr %150, i32 0, i32 1
  %152 = load i64, ptr %151, align 8, !tbaa !199
  %153 = mul i64 %149, %152
  %154 = load ptr, ptr %7, align 8, !tbaa !49
  %155 = getelementptr inbounds nuw %struct.Agobj_s, ptr %154, i32 0, i32 0
  %156 = load i32, ptr %155, align 8
  %157 = and i32 %156, 3
  %158 = icmp eq i32 %157, 3
  br i1 %158, label %159, label %161

159:                                              ; preds = %141
  %160 = load ptr, ptr %7, align 8, !tbaa !49
  br label %164

161:                                              ; preds = %141
  %162 = load ptr, ptr %7, align 8, !tbaa !49
  %163 = getelementptr inbounds %struct.Agedge_s, ptr %162, i64 1
  br label %164

164:                                              ; preds = %161, %159
  %165 = phi ptr [ %160, %159 ], [ %163, %161 ]
  %166 = getelementptr inbounds nuw %struct.Agedge_s, ptr %165, i32 0, i32 3
  %167 = load ptr, ptr %166, align 8, !tbaa !51
  %168 = getelementptr inbounds nuw %struct.Agobj_s, ptr %167, i32 0, i32 1
  %169 = load ptr, ptr %168, align 8, !tbaa !8
  %170 = getelementptr inbounds nuw %struct.Agnodeinfo_t, ptr %169, i32 0, i32 51
  %171 = load i32, ptr %170, align 8, !tbaa !172
  %172 = sext i32 %171 to i64
  %173 = add i64 %153, %172
  %174 = getelementptr inbounds nuw i8, ptr %130, i64 %173
  store i8 1, ptr %174, align 1, !tbaa !76
  %175 = load ptr, ptr %7, align 8, !tbaa !49
  call void @delete_flat_edge(ptr noundef %175)
  %176 = load i32, ptr %5, align 4, !tbaa !33
  %177 = add nsw i32 %176, -1
  store i32 %177, ptr %5, align 4, !tbaa !33
  %178 = load ptr, ptr %7, align 8, !tbaa !49
  %179 = getelementptr inbounds nuw %struct.Agobj_s, ptr %178, i32 0, i32 1
  %180 = load ptr, ptr %179, align 8, !tbaa !8
  %181 = getelementptr inbounds nuw %struct.Agedgeinfo_t, ptr %180, i32 0, i32 8
  %182 = load i8, ptr %181, align 8, !tbaa !102
  %183 = sext i8 %182 to i32
  %184 = icmp eq i32 %183, 4
  br i1 %184, label %185, label %186

185:                                              ; preds = %164
  br label %274

186:                                              ; preds = %164
  %187 = load ptr, ptr %3, align 8, !tbaa !3
  %188 = load ptr, ptr %7, align 8, !tbaa !49
  call void @flat_rev(ptr noundef %187, ptr noundef %188)
  br label %273

189:                                              ; preds = %118
  %190 = load ptr, ptr %8, align 8, !tbaa !196
  %191 = getelementptr inbounds nuw %struct.adjmatrix_t, ptr %190, i32 0, i32 2
  %192 = load ptr, ptr %191, align 8, !tbaa !200
  %193 = load ptr, ptr %7, align 8, !tbaa !49
  %194 = getelementptr inbounds nuw %struct.Agobj_s, ptr %193, i32 0, i32 0
  %195 = load i32, ptr %194, align 8
  %196 = and i32 %195, 3
  %197 = icmp eq i32 %196, 3
  br i1 %197, label %198, label %200

198:                                              ; preds = %189
  %199 = load ptr, ptr %7, align 8, !tbaa !49
  br label %203

200:                                              ; preds = %189
  %201 = load ptr, ptr %7, align 8, !tbaa !49
  %202 = getelementptr inbounds %struct.Agedge_s, ptr %201, i64 1
  br label %203

203:                                              ; preds = %200, %198
  %204 = phi ptr [ %199, %198 ], [ %202, %200 ]
  %205 = getelementptr inbounds nuw %struct.Agedge_s, ptr %204, i32 0, i32 3
  %206 = load ptr, ptr %205, align 8, !tbaa !51
  %207 = getelementptr inbounds nuw %struct.Agobj_s, ptr %206, i32 0, i32 1
  %208 = load ptr, ptr %207, align 8, !tbaa !8
  %209 = getelementptr inbounds nuw %struct.Agnodeinfo_t, ptr %208, i32 0, i32 51
  %210 = load i32, ptr %209, align 8, !tbaa !172
  %211 = sext i32 %210 to i64
  %212 = load ptr, ptr %8, align 8, !tbaa !196
  %213 = getelementptr inbounds nuw %struct.adjmatrix_t, ptr %212, i32 0, i32 1
  %214 = load i64, ptr %213, align 8, !tbaa !199
  %215 = mul i64 %211, %214
  %216 = load ptr, ptr %7, align 8, !tbaa !49
  %217 = getelementptr inbounds nuw %struct.Agobj_s, ptr %216, i32 0, i32 0
  %218 = load i32, ptr %217, align 8
  %219 = and i32 %218, 3
  %220 = icmp eq i32 %219, 2
  br i1 %220, label %221, label %223

221:                                              ; preds = %203
  %222 = load ptr, ptr %7, align 8, !tbaa !49
  br label %226

223:                                              ; preds = %203
  %224 = load ptr, ptr %7, align 8, !tbaa !49
  %225 = getelementptr inbounds %struct.Agedge_s, ptr %224, i64 -1
  br label %226

226:                                              ; preds = %223, %221
  %227 = phi ptr [ %222, %221 ], [ %225, %223 ]
  %228 = getelementptr inbounds nuw %struct.Agedge_s, ptr %227, i32 0, i32 3
  %229 = load ptr, ptr %228, align 8, !tbaa !51
  %230 = getelementptr inbounds nuw %struct.Agobj_s, ptr %229, i32 0, i32 1
  %231 = load ptr, ptr %230, align 8, !tbaa !8
  %232 = getelementptr inbounds nuw %struct.Agnodeinfo_t, ptr %231, i32 0, i32 51
  %233 = load i32, ptr %232, align 8, !tbaa !172
  %234 = sext i32 %233 to i64
  %235 = add i64 %215, %234
  %236 = getelementptr inbounds nuw i8, ptr %192, i64 %235
  store i8 1, ptr %236, align 1, !tbaa !76
  %237 = load ptr, ptr %7, align 8, !tbaa !49
  %238 = getelementptr inbounds nuw %struct.Agobj_s, ptr %237, i32 0, i32 0
  %239 = load i32, ptr %238, align 8
  %240 = and i32 %239, 3
  %241 = icmp eq i32 %240, 2
  br i1 %241, label %242, label %244

242:                                              ; preds = %226
  %243 = load ptr, ptr %7, align 8, !tbaa !49
  br label %247

244:                                              ; preds = %226
  %245 = load ptr, ptr %7, align 8, !tbaa !49
  %246 = getelementptr inbounds %struct.Agedge_s, ptr %245, i64 -1
  br label %247

247:                                              ; preds = %244, %242
  %248 = phi ptr [ %243, %242 ], [ %246, %244 ]
  %249 = getelementptr inbounds nuw %struct.Agedge_s, ptr %248, i32 0, i32 3
  %250 = load ptr, ptr %249, align 8, !tbaa !51
  %251 = getelementptr inbounds nuw %struct.Agobj_s, ptr %250, i32 0, i32 1
  %252 = load ptr, ptr %251, align 8, !tbaa !8
  %253 = getelementptr inbounds nuw %struct.Agnodeinfo_t, ptr %252, i32 0, i32 29
  %254 = load i64, ptr %253, align 8, !tbaa !124
  %255 = icmp ne i64 %254, 0
  br i1 %255, label %272, label %256

256:                                              ; preds = %247
  %257 = load ptr, ptr %3, align 8, !tbaa !3
  %258 = load ptr, ptr %7, align 8, !tbaa !49
  %259 = getelementptr inbounds nuw %struct.Agobj_s, ptr %258, i32 0, i32 0
  %260 = load i32, ptr %259, align 8
  %261 = and i32 %260, 3
  %262 = icmp eq i32 %261, 2
  br i1 %262, label %263, label %265

263:                                              ; preds = %256
  %264 = load ptr, ptr %7, align 8, !tbaa !49
  br label %268

265:                                              ; preds = %256
  %266 = load ptr, ptr %7, align 8, !tbaa !49
  %267 = getelementptr inbounds %struct.Agedge_s, ptr %266, i64 -1
  br label %268

268:                                              ; preds = %265, %263
  %269 = phi ptr [ %264, %263 ], [ %267, %265 ]
  %270 = getelementptr inbounds nuw %struct.Agedge_s, ptr %269, i32 0, i32 3
  %271 = load ptr, ptr %270, align 8, !tbaa !51
  call void @flat_search(ptr noundef %257, ptr noundef %271)
  br label %272

272:                                              ; preds = %268, %247
  br label %273

273:                                              ; preds = %272, %186
  br label %274

274:                                              ; preds = %273, %185, %106, %98
  %275 = load i32, ptr %5, align 4, !tbaa !33
  %276 = add nsw i32 %275, 1
  store i32 %276, ptr %5, align 4, !tbaa !33
  br label %47, !llvm.loop !201

277:                                              ; preds = %47
  br label %278

278:                                              ; preds = %277, %2
  %279 = load ptr, ptr %4, align 8, !tbaa !41
  %280 = getelementptr inbounds nuw %struct.Agobj_s, ptr %279, i32 0, i32 1
  %281 = load ptr, ptr %280, align 8, !tbaa !8
  %282 = getelementptr inbounds nuw %struct.Agnodeinfo_t, ptr %281, i32 0, i32 30
  store i8 0, ptr %282, align 8, !tbaa !171
  call void @llvm.lifetime.end.p0(i64 8, ptr %8) #15
  call void @llvm.lifetime.end.p0(i64 8, ptr %7) #15
  call void @llvm.lifetime.end.p0(i64 1, ptr %6) #15
  call void @llvm.lifetime.end.p0(i64 4, ptr %5) #15
  ret void
}