; Function Attrs: nounwind uwtable
define internal fastcc void @flat_search(ptr noundef %0, ptr noundef readonly captures(none) %1) unnamed_addr #0 {
  %3 = getelementptr inbounds nuw i8, ptr %0, i64 16
  %4 = load ptr, ptr %3, align 8, !tbaa !3
  %5 = getelementptr inbounds nuw i8, ptr %4, i64 264
  %6 = load ptr, ptr %5, align 8, !tbaa !33
  %7 = getelementptr inbounds nuw i8, ptr %1, i64 16
  %8 = load ptr, ptr %7, align 8, !tbaa !3
  %9 = getelementptr inbounds nuw i8, ptr %8, i64 360
  %10 = load i32, ptr %9, align 8, !tbaa !138
  %11 = sext i32 %10 to i64
  %12 = getelementptr inbounds %struct.rank_t, ptr %6, i64 %11, i32 11
  %13 = load ptr, ptr %12, align 8, !tbaa !107
  %14 = getelementptr inbounds nuw i8, ptr %8, i64 224
  store i64 1, ptr %14, align 8, !tbaa !159
  %15 = getelementptr inbounds nuw i8, ptr %8, i64 232
  store i8 1, ptr %15, align 8, !tbaa !210
  %16 = tail call ptr @dot_root(ptr noundef %0) #23
  %17 = getelementptr inbounds nuw i8, ptr %16, i64 16
  %18 = load ptr, ptr %17, align 8, !tbaa !3
  %19 = getelementptr inbounds nuw i8, ptr %18, i64 236
  %20 = load i32, ptr %19, align 4, !tbaa !72
  %21 = icmp sgt i32 %20, 0
  %22 = load ptr, ptr %7, align 8, !tbaa !3
  %23 = getelementptr inbounds nuw i8, ptr %22, i64 288
  %24 = load ptr, ptr %23, align 8, !tbaa !97
  %.not = icmp eq ptr %24, null
  br i1 %.not, label %.loopexit, label %.preheader

.preheader:                                       ; preds = %2
  %25 = load ptr, ptr %24, align 8, !tbaa !50
  %.not5159 = icmp eq ptr %25, null
  br i1 %.not5159, label %.loopexit, label %.lr.ph

.lr.ph:                                           ; preds = %.preheader
  %26 = getelementptr inbounds nuw i8, ptr %13, i64 16
  %27 = getelementptr inbounds nuw i8, ptr %13, i64 8
  br label %28

28:                                               ; preds = %.lr.ph, %116
  %29 = phi ptr [ %25, %.lr.ph ], [ %123, %116 ]
  %.060 = phi i32 [ 0, %.lr.ph ], [ %117, %116 ]
  br i1 %21, label %30, label %46

30:                                               ; preds = %28
  %31 = load i32, ptr %29, align 8
  %32 = and i32 %31, 3
  %33 = icmp eq i32 %32, 3
  %.idx = select i1 %33, i64 0, i64 64
  %34 = getelementptr inbounds nuw i8, ptr %29, i64 %.idx
  %35 = getelementptr inbounds nuw i8, ptr %34, i64 56
  %36 = load ptr, ptr %35, align 8, !tbaa !51
  %37 = tail call i32 @agcontains(ptr noundef %0, ptr noundef %36) #23
  %.not52 = icmp eq i32 %37, 0
  br i1 %.not52, label %116, label %38

38:                                               ; preds = %30
  %39 = load i32, ptr %29, align 8
  %40 = and i32 %39, 3
  %41 = icmp eq i32 %40, 2
  %.idx53 = select i1 %41, i64 0, i64 -64
  %42 = getelementptr inbounds i8, ptr %29, i64 %.idx53
  %43 = getelementptr inbounds nuw i8, ptr %42, i64 56
  %44 = load ptr, ptr %43, align 8, !tbaa !51
  %45 = tail call i32 @agcontains(ptr noundef %0, ptr noundef %44) #23
  %.not54 = icmp eq i32 %45, 0
  br i1 %.not54, label %116, label %46

46:                                               ; preds = %38, %28
  %47 = getelementptr inbounds nuw i8, ptr %29, i64 16
  %48 = load ptr, ptr %47, align 8, !tbaa !3
  %49 = getelementptr inbounds nuw i8, ptr %48, i64 212
  %50 = load i32, ptr %49, align 4, !tbaa !202
  %51 = icmp eq i32 %50, 0
  br i1 %51, label %116, label %52

52:                                               ; preds = %46
  %53 = load i32, ptr %29, align 8
  %54 = and i32 %53, 3
  %55 = icmp eq i32 %54, 2
  %56 = getelementptr inbounds i8, ptr %29, i64 -64
  %57 = select i1 %55, ptr %29, ptr %56
  %58 = getelementptr inbounds nuw i8, ptr %57, i64 56
  %59 = load ptr, ptr %58, align 8, !tbaa !51
  %60 = getelementptr inbounds nuw i8, ptr %59, i64 16
  %61 = load ptr, ptr %60, align 8, !tbaa !3
  %62 = getelementptr inbounds nuw i8, ptr %61, i64 232
  %63 = load i8, ptr %62, align 8, !tbaa !210
  %.not55 = icmp eq i8 %63, 0
  %64 = load ptr, ptr %26, align 8, !tbaa !108
  br i1 %.not55, label %88, label %65

65:                                               ; preds = %52
  %66 = getelementptr inbounds nuw i8, ptr %61, i64 448
  %67 = load i32, ptr %66, align 8, !tbaa !140
  %68 = sext i32 %67 to i64
  %69 = load i64, ptr %27, align 8, !tbaa !141
  %70 = mul i64 %69, %68
  %71 = icmp eq i32 %54, 3
  %.idx58 = select i1 %71, i64 0, i64 64
  %72 = getelementptr inbounds nuw i8, ptr %29, i64 %.idx58
  %73 = getelementptr inbounds nuw i8, ptr %72, i64 56
  %74 = load ptr, ptr %73, align 8, !tbaa !51
  %75 = getelementptr inbounds nuw i8, ptr %74, i64 16
  %76 = load ptr, ptr %75, align 8, !tbaa !3
  %77 = getelementptr inbounds nuw i8, ptr %76, i64 448
  %78 = load i32, ptr %77, align 8, !tbaa !140
  %79 = sext i32 %78 to i64
  %80 = getelementptr i8, ptr %64, i64 %70
  %81 = getelementptr i8, ptr %80, i64 %79
  store i8 1, ptr %81, align 1, !tbaa !46
  tail call void @delete_flat_edge(ptr noundef nonnull %29) #23
  %82 = add nsw i32 %.060, -1
  %83 = load ptr, ptr %47, align 8, !tbaa !3
  %84 = getelementptr inbounds nuw i8, ptr %83, i64 152
  %85 = load i8, ptr %84, align 8, !tbaa !98
  %86 = icmp eq i8 %85, 4
  br i1 %86, label %116, label %87

87:                                               ; preds = %65
  tail call fastcc void @flat_rev(ptr noundef %0, ptr noundef %29)
  br label %116

88:                                               ; preds = %52
  %89 = icmp eq i32 %54, 3
  %.idx56 = select i1 %89, i64 0, i64 64
  %90 = getelementptr inbounds nuw i8, ptr %29, i64 %.idx56
  %91 = getelementptr inbounds nuw i8, ptr %90, i64 56
  %92 = load ptr, ptr %91, align 8, !tbaa !51
  %93 = getelementptr inbounds nuw i8, ptr %92, i64 16
  %94 = load ptr, ptr %93, align 8, !tbaa !3
  %95 = getelementptr inbounds nuw i8, ptr %94, i64 448
  %96 = load i32, ptr %95, align 8, !tbaa !140
  %97 = sext i32 %96 to i64
  %98 = load i64, ptr %27, align 8, !tbaa !141
  %99 = mul i64 %98, %97
  %100 = getelementptr inbounds nuw i8, ptr %61, i64 448
  %101 = load i32, ptr %100, align 8, !tbaa !140
  %102 = sext i32 %101 to i64
  %103 = getelementptr i8, ptr %64, i64 %99
  %104 = getelementptr i8, ptr %103, i64 %102
  store i8 1, ptr %104, align 1, !tbaa !46
  %105 = load i32, ptr %29, align 8
  %106 = and i32 %105, 3
  %107 = icmp eq i32 %106, 2
  %108 = select i1 %107, ptr %29, ptr %56
  %109 = getelementptr inbounds nuw i8, ptr %108, i64 56
  %110 = load ptr, ptr %109, align 8, !tbaa !51
  %111 = getelementptr inbounds nuw i8, ptr %110, i64 16
  %112 = load ptr, ptr %111, align 8, !tbaa !3
  %113 = getelementptr inbounds nuw i8, ptr %112, i64 224
  %114 = load i64, ptr %113, align 8, !tbaa !159
  %.not57 = icmp eq i64 %114, 0
  br i1 %.not57, label %115, label %116

115:                                              ; preds = %88
  tail call fastcc void @flat_search(ptr noundef %0, ptr noundef nonnull %110)
  br label %116

116:                                              ; preds = %87, %115, %88, %65, %46, %30, %38
  %.1 = phi i32 [ %.060, %46 ], [ %82, %65 ], [ %82, %87 ], [ %.060, %88 ], [ %.060, %115 ], [ %.060, %38 ], [ %.060, %30 ]
  %117 = add nsw i32 %.1, 1
  %118 = load ptr, ptr %7, align 8, !tbaa !3
  %119 = getelementptr inbounds nuw i8, ptr %118, i64 288
  %120 = load ptr, ptr %119, align 8, !tbaa !97
  %121 = sext i32 %117 to i64
  %122 = getelementptr inbounds ptr, ptr %120, i64 %121
  %123 = load ptr, ptr %122, align 8, !tbaa !50
  %.not51 = icmp eq ptr %123, null
  br i1 %.not51, label %.loopexit, label %28, !llvm.loop !230

.loopexit:                                        ; preds = %116, %.preheader, %2
  %124 = phi ptr [ %22, %.preheader ], [ %22, %2 ], [ %118, %116 ]
  %125 = getelementptr inbounds nuw i8, ptr %124, i64 232
  store i8 0, ptr %125, align 8, !tbaa !210
  ret void
}